; Function Attrs: null_pointer_is_valid sspstrong uwtable
define internal i32 @dissect_inap_IPRoutingAddress(i1 noundef zeroext %0, ptr noundef %1, i32 noundef %2, ptr noundef %3, ptr noundef %4, i32 noundef %5) #0 {
  %7 = alloca ptr, align 8
  call void @llvm.lifetime.start.p0(i64 8, ptr nonnull %7) #4
  %8 = call i32 @dissect_ber_octet_string(i1 noundef zeroext %0, ptr noundef %3, ptr noundef %4, ptr noundef %1, i32 noundef %2, i32 noundef %5, ptr noundef nonnull %7)
  %9 = load ptr, ptr %7, align 8
  %.not.i = icmp eq ptr %9, null
  br i1 %.not.i, label %dissect_inap_CalledPartyNumber.exit, label %10

10:                                               ; preds = %6
  %11 = getelementptr inbounds nuw i8, ptr %3, i64 16
  %12 = load ptr, ptr %11, align 8
  call void @dissect_isup_called_party_number_parameter(ptr noundef nonnull %9, ptr noundef %12, ptr noundef %4, ptr noundef null)
  br label %dissect_inap_CalledPartyNumber.exit

dissect_inap_CalledPartyNumber.exit:              ; preds = %6, %10
  call void @llvm.lifetime.end.p0(i64 8, ptr nonnull %7) #4
  ret i32 %8
}